; Function Attrs: mustprogress uwtable
define internal noalias noundef nonnull ptr @_ZNK7testing8internal30ValuesInIteratorRangeGeneratorIN11opencv_test12_GLOBAL__N_17pnpAlgoEE5BeginEv(ptr noundef nonnull align 8 dereferenceable(32) %0) unnamed_addr #3 align 2 personality ptr @__gxx_personality_v0 {
  %2 = tail call noalias noundef nonnull dereferenceable(32) ptr @_Znwm(i64 noundef 32) #27
  %3 = getelementptr inbounds i8, ptr %0, i64 8
  %.val = load ptr, ptr %3, align 8
  store ptr getelementptr inbounds inrange(-16, 56) (i8, ptr @_ZTVN7testing8internal30ValuesInIteratorRangeGeneratorIN11opencv_test12_GLOBAL__N_17pnpAlgoEE8IteratorE, i64 16), ptr %2, align 8
  %4 = getelementptr inbounds i8, ptr %2, i64 8
  store ptr %0, ptr %4, align 8
  %5 = getelementptr inbounds i8, ptr %2, i64 16
  store ptr %.val, ptr %5, align 8
  %6 = getelementptr inbounds i8, ptr %2, i64 24
  store ptr null, ptr %6, align 8
  ret ptr %2
}